target datalayout = "e-m:e-p270:32:32-p271:32:32-p272:64:64-i64:64-i128:128-f80:128-n8:16:32:64-S128"
target triple = "x86_64-pc-linux-gnu"

%"class.sls::bv_eval" = type <{ ptr, ptr, ptr, %"class.sls::bv_lookahead", %class.bv_util, %"class.sls::bv_fixed", [8 x i8], %class.ptr_vector, %class.random_gen, %"struct.sls::bv_eval::config", %class.svector.7, i32, i32, %class.svector.9, %class.svector.11, %class.scoped_ptr_vector, %"class.sls::bvect", %"class.sls::bvect", %"class.sls::bvect", %"class.sls::bvect", %"class.sls::bvect", %"class.sls::bvect", %"class.sls::bvect", %"class.sls::bvect", %"class.sls::bvect", %"class.sls::bvect", %"class.sls::bvect", %"class.sls::bvect", %"class.sls::bvect", i8, [7 x i8] }>
%"class.sls::bv_lookahead" = type { %class.bv_util, ptr, ptr, ptr, %"struct.sls::bv_lookahead::config", %"struct.sls::bv_lookahead::stats", %"class.sls::bvect", %"class.sls::bvect", %class.ptr_vector, %class.svector.1, %class.vector.3, %class.obj_mark, double, double, %"class.sls::bvect", ptr, ptr, %class.ptr_vector, %class.vector.4, %class.obj_mark, i32, %class.tracked_uint_set, i32, i32 }
%"struct.sls::bv_lookahead::config" = type <{ i8, [7 x i8], double, i32, i32, i8, i8, i8, i8, i32, i32, i32, i32, i8, [3 x i8], i32, i32, i32, i8, [3 x i8], double, double, i8, [7 x i8], double, i8, i8, i8, [5 x i8] }>
%"struct.sls::bv_lookahead::stats" = type { i32, i32, i32, i32, i32, i32 }
%class.svector.1 = type { %class.vector.2 }
%class.vector.2 = type { ptr }
%class.vector.3 = type { ptr }
%class.vector.4 = type { ptr }
%class.obj_mark = type { [8 x i8], %class.bit_vector }
%class.bit_vector = type { i32, i32, ptr }
%class.tracked_uint_set = type { %class.svector.5, %class.svector }
%class.svector.5 = type { %class.vector.6 }
%class.vector.6 = type { ptr }
%class.svector = type { %class.vector }
%class.vector = type { ptr }
%class.bv_util = type { %class.bv_recognizers, ptr, ptr }
%class.bv_recognizers = type { i32 }
%"class.sls::bv_fixed" = type { ptr, ptr, ptr, ptr, ptr }
%class.ptr_vector = type { %class.vector.0 }
%class.vector.0 = type { ptr }
%class.random_gen = type { i32 }
%"struct.sls::bv_eval::config" = type { i32 }
%class.svector.7 = type { %class.vector.8 }
%class.vector.8 = type { ptr }
%class.svector.9 = type { %class.vector.10 }
%class.vector.10 = type { ptr }
%class.svector.11 = type { %class.vector.12 }
%class.vector.12 = type { ptr }
%class.scoped_ptr_vector = type { %class.ptr_vector.13 }
%class.ptr_vector.13 = type { %class.vector.14 }
%class.vector.14 = type { ptr }
%"class.sls::bvect" = type <{ %class.svector, i32, i32, i32, [4 x i8] }>
%"class.sls::bv_valuation" = type { %"class.sls::bvect", %"class.sls::bvect", %"class.sls::bvect", %"class.sls::bvect", %"class.sls::bvect", %"class.sls::bvect", i32, i32, i32, i32, %"class.sls::bvect" }

; Function Attrs: mustprogress nounwind uwtable
define linkonce_odr hidden noundef nonnull align 4 dereferenceable(4) ptr @_ZNK6vectorIjLb0EjEixEj(ptr noundef nonnull align 8 dereferenceable(8) %0, i32 noundef %1) #5 comdat align 2 {
  %3 = alloca ptr, align 8
  %4 = alloca i32, align 4
  store ptr %0, ptr %3, align 8, !tbaa !149
  store i32 %1, ptr %4, align 4, !tbaa !97
  %5 = load ptr, ptr %3, align 8
  %6 = getelementptr inbounds nuw %class.vector, ptr %5, i32 0, i32 0
  %7 = load ptr, ptr %6, align 8, !tbaa !151
  %8 = load i32, ptr %4, align 4, !tbaa !97
  %9 = zext i32 %8 to i64
  %10 = getelementptr inbounds nuw i32, ptr %7, i64 %9
  ret ptr %10
}

; Function Attrs: mustprogress uwtable
define linkonce_odr hidden noundef zeroext i1 @_ZNK3sls12bv_valuation7is_zeroERKNS_5bvectE(ptr noundef nonnull align 8 dereferenceable(184) %0, ptr noundef nonnull align 8 dereferenceable(20) %1) #4 comdat align 2 {
  %3 = alloca i1, align 1
  %4 = alloca ptr, align 8
  %5 = alloca ptr, align 8
  %6 = alloca i32, align 4
  %7 = alloca i32, align 4
  store ptr %0, ptr %4, align 8, !tbaa !122
  store ptr %1, ptr %5, align 8, !tbaa !110
  %8 = load ptr, ptr %4, align 8
  call void @llvm.lifetime.start.p0(i64 4, ptr %6) #3
  store i32 0, ptr %6, align 4, !tbaa !97
  br label %9

9:                                                ; preds = %24, %2
  %10 = load i32, ptr %6, align 4, !tbaa !97
  %11 = getelementptr inbounds nuw %"class.sls::bv_valuation", ptr %8, i32 0, i32 9
  %12 = load i32, ptr %11, align 4, !tbaa !128
  %13 = sub i32 %12, 1
  %14 = icmp ult i32 %10, %13
  br i1 %14, label %16, label %15

15:                                               ; preds = %9
  store i32 2, ptr %7, align 4
  br label %27

16:                                               ; preds = %9
  %17 = load ptr, ptr %5, align 8, !tbaa !110
  %18 = load i32, ptr %6, align 4, !tbaa !97
  %19 = call noundef nonnull align 4 dereferenceable(4) ptr @_ZNK6vectorIjLb0EjEixEj(ptr noundef nonnull align 8 dereferenceable(8) %17, i32 noundef %18)
  %20 = load i32, ptr %19, align 4, !tbaa !97
  %21 = icmp ne i32 %20, 0
  br i1 %21, label %22, label %23

22:                                               ; preds = %16
  store i1 false, ptr %3, align 1
  store i32 1, ptr %7, align 4
  br label %27

23:                                               ; preds = %16
  br label %24

24:                                               ; preds = %23
  %25 = load i32, ptr %6, align 4, !tbaa !97
  %26 = add i32 %25, 1
  store i32 %26, ptr %6, align 4, !tbaa !97
  br label %9, !llvm.loop !236

27:                                               ; preds = %22, %15
  call void @llvm.lifetime.end.p0(i64 4, ptr %6) #3
  %28 = load i32, ptr %7, align 4
  switch i32 %28, label %42 [
    i32 2, label %29
    i32 1, label %40
  ]

29:                                               ; preds = %27
  %30 = load ptr, ptr %5, align 8, !tbaa !110
  %31 = getelementptr inbounds nuw %"class.sls::bv_valuation", ptr %8, i32 0, i32 9
  %32 = load i32, ptr %31, align 4, !tbaa !128
  %33 = sub i32 %32, 1
  %34 = call noundef nonnull align 4 dereferenceable(4) ptr @_ZNK6vectorIjLb0EjEixEj(ptr noundef nonnull align 8 dereferenceable(8) %30, i32 noundef %33)
  %35 = load i32, ptr %34, align 4, !tbaa !97
  %36 = getelementptr inbounds nuw %"class.sls::bv_valuation", ptr %8, i32 0, i32 7
  %37 = load i32, ptr %36, align 4, !tbaa !237
  %38 = and i32 %35, %37
  %39 = icmp eq i32 %38, 0
  store i1 %39, ptr %3, align 1
  br label %40

40:                                               ; preds = %29, %27
  %41 = load i1, ptr %3, align 1
  ret i1 %41

42:                                               ; preds = %27
  unreachable
}

; Function Attrs: mustprogress uwtable
define linkonce_odr hidden noundef zeroext i1 @_ZNK3sls12bv_valuation7is_zeroEv(ptr noundef nonnull align 8 dereferenceable(184) %0) #4 comdat align 2 {
  %2 = alloca ptr, align 8
  store ptr %0, ptr %2, align 8, !tbaa !122
  %3 = load ptr, ptr %2, align 8
  %4 = getelementptr inbounds nuw %"class.sls::bv_valuation", ptr %3, i32 0, i32 0
  %5 = call noundef zeroext i1 @_ZNK3sls12bv_valuation7is_zeroERKNS_5bvectE(ptr noundef nonnull align 8 dereferenceable(184) %3, ptr noundef nonnull align 8 dereferenceable(20) %4)
  ret i1 %5
}

; Function Attrs: mustprogress nounwind uwtable
define linkonce_odr hidden noundef nonnull align 8 dereferenceable(20) ptr @_ZNK3sls12bv_valuation4bitsEv(ptr noundef nonnull align 8 dereferenceable(184) %0) #5 comdat align 2 {
  %2 = alloca ptr, align 8
  store ptr %0, ptr %2, align 8, !tbaa !122
  %3 = load ptr, ptr %2, align 8
  %4 = getelementptr inbounds nuw %"class.sls::bv_valuation", ptr %3, i32 0, i32 0
  ret ptr %4
}

; Function Attrs: mustprogress uwtable
define hidden noundef zeroext i1 @_ZN3sls7bv_eval14try_repair_ugeEbRNS_12bv_valuationERKS1_(ptr noundef nonnull align 8 dereferenceable(865) %0, i1 noundef zeroext %1, ptr noundef nonnull align 8 dereferenceable(184) %2, ptr noundef nonnull align 8 dereferenceable(184) %3) #4 align 2 {
  %5 = alloca i1, align 1
  %6 = alloca ptr, align 8
  %7 = alloca i8, align 1
  %8 = alloca ptr, align 8
  %9 = alloca ptr, align 8
  store ptr %0, ptr %6, align 8, !tbaa !3
  %10 = zext i1 %1 to i8
  store i8 %10, ptr %7, align 1, !tbaa !133
  store ptr %2, ptr %8, align 8, !tbaa !122
  store ptr %3, ptr %9, align 8, !tbaa !122
  %11 = load ptr, ptr %6, align 8
  %12 = load i8, ptr %7, align 1, !tbaa !133, !range !134, !noundef !135
  %13 = trunc i8 %12 to i1
  br i1 %13, label %14, label %20

14:                                               ; preds = %4
  %15 = load ptr, ptr %8, align 8, !tbaa !122
  %16 = load ptr, ptr %9, align 8, !tbaa !122
  %17 = call noundef nonnull align 8 dereferenceable(20) ptr @_ZNK3sls12bv_valuation4bitsEv(ptr noundef nonnull align 8 dereferenceable(184) %16)
  %18 = getelementptr inbounds nuw %"class.sls::bv_eval", ptr %11, i32 0, i32 8
  %19 = call noundef zeroext i1 @_ZN3sls12bv_valuation19set_random_at_leastERKNS_5bvectER10random_gen(ptr noundef nonnull align 8 dereferenceable(184) %15, ptr noundef nonnull align 8 dereferenceable(20) %17, ptr noundef nonnull align 4 dereferenceable(4) %18)
  store i1 %19, ptr %5, align 1
  br label %38

20:                                               ; preds = %4
  %21 = getelementptr inbounds nuw %"class.sls::bv_eval", ptr %11, i32 0, i32 16
  %22 = load ptr, ptr %8, align 8, !tbaa !122
  %23 = getelementptr inbounds nuw %"class.sls::bv_valuation", ptr %22, i32 0, i32 8
  %24 = load i32, ptr %23, align 8, !tbaa !124
  call void @_ZN3sls5bvect6set_bwEj(ptr noundef nonnull align 8 dereferenceable(20) %21, i32 noundef %24)
  %25 = load ptr, ptr %9, align 8, !tbaa !122
  %26 = call noundef zeroext i1 @_ZNK3sls12bv_valuation7is_zeroEv(ptr noundef nonnull align 8 dereferenceable(184) %25)
  br i1 %26, label %27, label %28

27:                                               ; preds = %20
  store i1 false, ptr %5, align 1
  br label %38

28:                                               ; preds = %20
  %29 = load ptr, ptr %8, align 8, !tbaa !122
  %30 = getelementptr inbounds nuw %"class.sls::bv_eval", ptr %11, i32 0, i32 16
  %31 = load ptr, ptr %9, align 8, !tbaa !122
  %32 = call noundef nonnull align 8 dereferenceable(20) ptr @_ZNK3sls12bv_valuation4bitsEv(ptr noundef nonnull align 8 dereferenceable(184) %31)
  %33 = getelementptr inbounds nuw %"class.sls::bv_eval", ptr %11, i32 0, i32 22
  call void @_ZNK3sls12bv_valuation7set_subERNS_5bvectERKS1_S4_(ptr noundef nonnull align 8 dereferenceable(184) %29, ptr noundef nonnull align 8 dereferenceable(20) %30, ptr noundef nonnull align 8 dereferenceable(20) %32, ptr noundef nonnull align 8 dereferenceable(20) %33)
  %34 = load ptr, ptr %8, align 8, !tbaa !122
  %35 = getelementptr inbounds nuw %"class.sls::bv_eval", ptr %11, i32 0, i32 16
  %36 = getelementptr inbounds nuw %"class.sls::bv_eval", ptr %11, i32 0, i32 8
  %37 = call noundef zeroext i1 @_ZN3sls12bv_valuation18set_random_at_mostERKNS_5bvectER10random_gen(ptr noundef nonnull align 8 dereferenceable(184) %34, ptr noundef nonnull align 8 dereferenceable(20) %35, ptr noundef nonnull align 4 dereferenceable(4) %36)
  store i1 %37, ptr %5, align 1
  br label %38

38:                                               ; preds = %28, %27, %14
  %39 = load i1, ptr %5, align 1
  ret i1 %39
}