; Function Attrs: mustprogress uwtable
define hidden noundef zeroext i1 @_ZN3sls7bv_eval14try_repair_ugeEbRNS_12bv_valuationERKS1_(ptr noundef nonnull align 8 dereferenceable(865) %0, i1 noundef zeroext %1, ptr noundef nonnull align 8 dereferenceable(184) %2, ptr noundef nonnull align 8 dereferenceable(184) %3) local_unnamed_addr #3 align 2 {
  br i1 %1, label %5, label %8

5:                                                ; preds = %4
  %6 = getelementptr inbounds nuw i8, ptr %0, i64 504
  %7 = tail call noundef zeroext i1 @_ZN3sls12bv_valuation19set_random_at_leastERKNS_5bvectER10random_gen(ptr noundef nonnull align 8 dereferenceable(184) %2, ptr noundef nonnull align 8 dereferenceable(20) %3, ptr noundef nonnull align 4 dereferenceable(4) %6)
  br label %28

8:                                                ; preds = %4
  %9 = getelementptr inbounds nuw i8, ptr %0, i64 552
  %10 = getelementptr inbounds nuw i8, ptr %2, i64 152
  %11 = load i32, ptr %10, align 8, !tbaa !128
  tail call void @_ZN3sls5bvect6set_bwEj(ptr noundef nonnull align 8 dereferenceable(20) %9, i32 noundef %11)
  %12 = getelementptr inbounds nuw i8, ptr %3, i64 156
  %13 = load i32, ptr %12, align 4, !tbaa !131
  %14 = add i32 %13, -1
  %.not14.i.i = icmp eq i32 %14, 0
  %.pre.i.i = load ptr, ptr %3, align 8, !tbaa !97
  br i1 %.not14.i.i, label %_ZNK3sls12bv_valuation7is_zeroEv.exit, label %.lr.ph.i.i

.lr.ph.i.i:                                       ; preds = %8
  %wide.trip.count.i.i = zext i32 %14 to i64
  br label %16

15:                                               ; preds = %16
  %indvars.iv.next.i.i = add nuw nsw i64 %indvars.iv.i.i, 1
  %exitcond.not.i.i = icmp eq i64 %indvars.iv.next.i.i, %wide.trip.count.i.i
  br i1 %exitcond.not.i.i, label %_ZNK3sls12bv_valuation7is_zeroEv.exit, label %16, !llvm.loop !205

16:                                               ; preds = %15, %.lr.ph.i.i
  %indvars.iv.i.i = phi i64 [ 0, %.lr.ph.i.i ], [ %indvars.iv.next.i.i, %15 ]
  %17 = getelementptr inbounds nuw i32, ptr %.pre.i.i, i64 %indvars.iv.i.i
  %18 = load i32, ptr %17, align 4, !tbaa !102
  %.not.i.i = icmp eq i32 %18, 0
  br i1 %.not.i.i, label %15, label %_ZNK3sls12bv_valuation7is_zeroEv.exit.thread

_ZNK3sls12bv_valuation7is_zeroEv.exit:            ; preds = %15, %8
  %.pre-phi.i.i = phi i64 [ 0, %8 ], [ %wide.trip.count.i.i, %15 ]
  %19 = getelementptr inbounds nuw i32, ptr %.pre.i.i, i64 %.pre-phi.i.i
  %20 = load i32, ptr %19, align 4, !tbaa !102
  %21 = getelementptr inbounds nuw i8, ptr %3, i64 148
  %22 = load i32, ptr %21, align 4, !tbaa !157
  %23 = and i32 %22, %20
  %24 = icmp eq i32 %23, 0
  br i1 %24, label %28, label %_ZNK3sls12bv_valuation7is_zeroEv.exit.thread

_ZNK3sls12bv_valuation7is_zeroEv.exit.thread:     ; preds = %16, %_ZNK3sls12bv_valuation7is_zeroEv.exit
  %25 = getelementptr inbounds nuw i8, ptr %0, i64 696
  tail call void @_ZNK3sls12bv_valuation7set_subERNS_5bvectERKS1_S4_(ptr noundef nonnull align 8 dereferenceable(184) %2, ptr noundef nonnull align 8 dereferenceable(20) %9, ptr noundef nonnull align 8 dereferenceable(20) %3, ptr noundef nonnull align 8 dereferenceable(20) %25)
  %26 = getelementptr inbounds nuw i8, ptr %0, i64 504
  %27 = tail call noundef zeroext i1 @_ZN3sls12bv_valuation18set_random_at_mostERKNS_5bvectER10random_gen(ptr noundef nonnull align 8 dereferenceable(184) %2, ptr noundef nonnull align 8 dereferenceable(20) %9, ptr noundef nonnull align 4 dereferenceable(4) %26)
  br label %28

28:                                               ; preds = %_ZNK3sls12bv_valuation7is_zeroEv.exit, %_ZNK3sls12bv_valuation7is_zeroEv.exit.thread, %5
  %.0 = phi i1 [ %7, %5 ], [ %27, %_ZNK3sls12bv_valuation7is_zeroEv.exit.thread ], [ false, %_ZNK3sls12bv_valuation7is_zeroEv.exit ]
  ret i1 %.0
}